Certificate:
    Data:
        Version: 3 (0x2)
        Serial Number:
            20:b9:ae:6e:9e:e7:8e:68:46:b7:7c:19:2c:5c:31:e8
        Signature Algorithm: SM2-with-SM3
        Issuer: C=CN, ST=HZ, O=ali, OU=ant, CN=www.example.com/emailAddress=client@example.com
        Validity
            Not Before: Apr 14 08:11:01 2020 GMT
            Not After : Apr 12 08:11:01 2030 GMT
        Subject: C=CN, ST=HZ, O=ali, OU=ant, CN=www.middle.com/emailAddress=test@test.com
        Subject Public Key Info:
            Public Key Algorithm: id-ecPublicKey
                Public-Key: (256 bit)
                pub:
                    04:b7:11:be:0e:2c:8d:37:d7:09:cc:d8:f9:4c:b7:
                    70:d7:5a:7d:41:e1:6e:aa:44:98:e1:a9:35:20:88:
                    f5:58:a6:4e:38:23:48:8a:d8:0f:26:a7:17:f1:70:
                    74:d3:aa:e4:59:d1:56:8e:55:d1:5f:bc:dc:68:ea:
                    dc:fa:6c:59:13
                ASN1 OID: SM2
        X509v3 extensions:
            X509v3 Subject Key Identifier: 
                71:50:68:57:73:2A:22:D6:E6:D2:92:0B:3A:09:C5:56:58:00:61:5E
            X509v3 Authority Key Identifier: 
                keyid:7C:21:1D:07:19:A2:B1:D9:76:1C:B0:95:41:40:6B:BC:36:76:1B:6E

            X509v3 Basic Constraints: critical
                CA:TRUE, pathlen:0
            X509v3 Key Usage: critical
                Digital Signature, Certificate Sign, CRL Sign
    Signature Algorithm: SM2-with-SM3
         30:44:02:20:6e:2e:e8:37:0f:b6:43:e8:a1:7d:b3:a7:b9:61:
         da:5a:1c:ff:c6:83:02:ce:b9:5f:3e:3d:11:04:98:af:85:28:
         02:20:78:bb:df:5d:e2:c7:22:1a:9a:41:ee:07:f0:3f:3b:6c:
         ef:be:20:cd:24:ae:06:3a:57:6a:94:fc:9a:c2:13:83
-----BEGIN CERTIFICATE-----
MIICQzCCAeqgAwIBAgIQILmubp7njmhGt3wZLFwx6DAKBggqgRzPVQGDdTBzMQsw
CQYDVQQGEwJDTjELMAkGA1UECAwCSFoxDDAKBgNVBAoMA2FsaTEMMAoGA1UECwwD
YW50MRgwFgYDVQQDDA93d3cuZXhhbXBsZS5jb20xITAfBgkqhkiG9w0BCQEWEmNs
aWVudEBleGFtcGxlLmNvbTAeFw0yMDA0MTQwODExMDFaFw0zMDA0MTIwODExMDFa
MG0xCzAJBgNVBAYTAkNOMQswCQYDVQQIDAJIWjEMMAoGA1UECgwDYWxpMQwwCgYD
VQQLDANhbnQxFzAVBgNVBAMMDnd3dy5taWRkbGUuY29tMRwwGgYJKoZIhvcNAQkB
Fg10ZXN0QHRlc3QuY29tMFkwEwYHKoZIzj0CAQYIKoEcz1UBgi0DQgAEtxG+DiyN
N9cJzNj5TLdw11p9QeFuqkSY4ak1IIj1WKZOOCNIitgPJqcX8XB006rkWdFWjlXR
X7zcaOrc+mxZE6NmMGQwHQYDVR0OBBYEFHFQaFdzKiLW5tKSCzoJxVZYAGFeMB8G
A1UdIwQYMBaAFHwhHQcZorHZdhywlUFAa7w2dhtuMBIGA1UdEwEB/wQIMAYBAf8C
AQAwDgYDVR0PAQH/BAQDAgGGMAoGCCqBHM9VAYN1A0cAMEQCIG4u6DcPtkPooX2z
p7lh2loc/8aDAs65Xz49EQSYr4UoAiB4u99d4sciGppB7gfwPzts774gzSSuBjpX
apT8msITgw==
-----END CERTIFICATE-----
