Certificate:
    Data:
        Version: 3 (0x2)
        Serial Number:
            20:b9:ae:6e:9e:e7:8e:68:46:b7:7c:19:2c:5c:31:e9
        Signature Algorithm: SM2-with-SM3
        Issuer: C=CN, ST=HZ, O=ali, OU=ant, CN=www.middle.com/emailAddress=test@test.com
        Validity
            Not Before: Apr 14 08:18:43 2020 GMT
            Not After : Apr 12 08:18:43 2030 GMT
        Subject: C=CN, ST=HZ, O=ali, CN=*.alipay.com/emailAddress=test@test.com
        Subject Public Key Info:
            Public Key Algorithm: id-ecPublicKey
                Public-Key: (256 bit)
                pub:
                    04:31:b8:86:8c:1c:64:0e:b0:b5:af:0b:95:94:80:
                    bf:e9:f6:c6:76:76:8a:c6:3d:bf:2e:4b:fd:11:c3:
                    8b:2a:fd:d6:16:e1:62:d5:e6:9e:52:f4:12:90:d7:
                    11:31:d6:80:8b:1a:4c:f9:12:90:f8:2a:7a:67:7b:
                    33:25:4a:f4:8d
                ASN1 OID: SM2
        X509v3 extensions:
            X509v3 Basic Constraints: 
                CA:FALSE
            Netscape Cert Type: 
                SSL Server
            Netscape Comment: 
                OpenSSL Generated Server Certificate
            X509v3 Subject Key Identifier: 
                29:B0:1B:EF:D2:90:55:4A:11:8A:8F:62:1B:DC:C2:EA:0A:BE:D8:F0
            X509v3 Authority Key Identifier: 
                keyid:71:50:68:57:73:2A:22:D6:E6:D2:92:0B:3A:09:C5:56:58:00:61:5E
                DirName:/C=CN/ST=HZ/O=ali/OU=ant/CN=www.example.com/emailAddress=client@example.com
                serial:20:B9:AE:6E:9E:E7:8E:68:46:B7:7C:19:2C:5C:31:E8

            X509v3 Key Usage: critical
                Digital Signature, Key Encipherment
            X509v3 Extended Key Usage: 
                TLS Web Server Authentication
            X509v3 Subject Alternative Name: 
                DNS:alipay.com, DNS:*.alipay.com
    Signature Algorithm: SM2-with-SM3
         30:46:02:21:00:e0:8c:3c:b6:e1:9f:bc:51:69:8f:00:1a:c1:
         f5:81:77:ea:ff:43:7c:f1:ff:ab:8d:c4:19:d3:47:f6:43:99:
         70:02:21:00:e3:47:cc:7d:31:c9:2e:9f:ca:5d:31:82:eb:12:
         d8:7a:61:38:cb:9c:d3:db:0b:e0:c9:bc:bb:43:7c:d7:c1:54
-----BEGIN CERTIFICATE-----
MIIDOjCCAt+gAwIBAgIQILmubp7njmhGt3wZLFwx6TAKBggqgRzPVQGDdTBtMQsw
CQYDVQQGEwJDTjELMAkGA1UECAwCSFoxDDAKBgNVBAoMA2FsaTEMMAoGA1UECwwD
YW50MRcwFQYDVQQDDA53d3cubWlkZGxlLmNvbTEcMBoGCSqGSIb3DQEJARYNdGVz
dEB0ZXN0LmNvbTAeFw0yMDA0MTQwODE4NDNaFw0zMDA0MTIwODE4NDNaMF0xCzAJ
BgNVBAYTAkNOMQswCQYDVQQIDAJIWjEMMAoGA1UECgwDYWxpMRUwEwYDVQQDDAwq
LmFsaXBheS5jb20xHDAaBgkqhkiG9w0BCQEWDXRlc3RAdGVzdC5jb20wWTATBgcq
hkjOPQIBBggqgRzPVQGCLQNCAAQxuIaMHGQOsLWvC5WUgL/p9sZ2dorGPb8uS/0R
w4sq/dYW4WLV5p5S9BKQ1xEx1oCLGkz5EpD4KnpnezMlSvSNo4IBbzCCAWswCQYD
VR0TBAIwADARBglghkgBhvhCAQEEBAMCBkAwMwYJYIZIAYb4QgENBCYWJE9wZW5T
U0wgR2VuZXJhdGVkIFNlcnZlciBDZXJ0aWZpY2F0ZTAdBgNVHQ4EFgQUKbAb79KQ
VUoRio9iG9zC6gq+2PAwgawGA1UdIwSBpDCBoYAUcVBoV3MqItbm0pILOgnFVlgA
YV6hd6R1MHMxCzAJBgNVBAYTAkNOMQswCQYDVQQIDAJIWjEMMAoGA1UECgwDYWxp
MQwwCgYDVQQLDANhbnQxGDAWBgNVBAMMD3d3dy5leGFtcGxlLmNvbTEhMB8GCSqG
SIb3DQEJARYSY2xpZW50QGV4YW1wbGUuY29tghAgua5unueOaEa3fBksXDHoMA4G
A1UdDwEB/wQEAwIFoDATBgNVHSUEDDAKBggrBgEFBQcDATAjBgNVHREEHDAaggph
bGlwYXkuY29tggwqLmFsaXBheS5jb20wCgYIKoEcz1UBg3UDSQAwRgIhAOCMPLbh
n7xRaY8AGsH1gXfq/0N88f+rjcQZ00f2Q5lwAiEA40fMfTHJLp/KXTGC6xLYemE4
y5zT2wvgyby7Q3zXwVQ=
-----END CERTIFICATE-----
